; Function Attrs: mustprogress uwtable
define void @_ZN2cv8ximgproc31createDisparityWLSFilterGenericEb(ptr dead_on_unwind noalias writable writeonly sret(%"struct.cv::Ptr.12") align 8 captures(none) initializes((0, 16)) %0, i1 noundef zeroext %1) local_unnamed_addr #3 personality ptr @__gxx_personality_v0 {
_ZNSt12__shared_ptrIN2cv8ximgproc22DisparityWLSFilterImplELN9__gnu_cxx12_Lock_policyE2EED2Ev.exit:
  %2 = alloca %"struct.cv::Ptr", align 8
  call void @llvm.lifetime.start.p0(i64 16, ptr nonnull %2) #23
  call void @_ZN2cv8ximgproc22DisparityWLSFilterImpl6createEbiiiii(ptr dead_on_unwind nonnull writable sret(%"struct.cv::Ptr") align 8 %2, i1 noundef zeroext %1, i32 noundef 0, i32 noundef 0, i32 noundef 0, i32 noundef 0, i32 poison)
  %3 = load ptr, ptr %2, align 8, !tbaa !97
  store ptr %3, ptr %0, align 8, !tbaa !186
  %4 = getelementptr inbounds nuw i8, ptr %0, i64 8
  %5 = getelementptr inbounds nuw i8, ptr %2, i64 8
  %6 = load ptr, ptr %5, align 8, !tbaa !101
  store ptr %6, ptr %4, align 8, !tbaa !101
  call void @llvm.lifetime.end.p0(i64 16, ptr nonnull %2) #23
  ret void
}